; Function Attrs: mustprogress uwtable
define hidden void @_ZN11solver_pool11updt_paramsERK10params_ref(ptr noundef nonnull readonly align 8 captures(none) dereferenceable(136) %0, ptr noundef nonnull align 8 dereferenceable(8) %1) local_unnamed_addr #5 align 2 {
  %3 = load ptr, ptr %0, align 8, !tbaa !3
  %4 = load ptr, ptr %3, align 8, !tbaa !38
  %5 = getelementptr inbounds nuw i8, ptr %4, i64 88
  %6 = load ptr, ptr %5, align 8
  tail call void %6(ptr noundef nonnull align 8 dereferenceable(96) %3, ptr noundef nonnull align 8 dereferenceable(8) %1)
  %7 = getelementptr inbounds nuw i8, ptr %0, i64 16
  %8 = load ptr, ptr %7, align 8, !tbaa !40
  %9 = icmp eq ptr %8, null
  br i1 %9, label %._crit_edge, label %_ZNK15ref_vector_coreI6solver21ref_unmanaged_wrapperIS0_EE3endEv.exit

_ZNK15ref_vector_coreI6solver21ref_unmanaged_wrapperIS0_EE3endEv.exit: ; preds = %2
  %10 = getelementptr inbounds i8, ptr %8, i64 -4
  %11 = load i32, ptr %10, align 4, !tbaa !41
  %12 = zext i32 %11 to i64
  %13 = getelementptr inbounds nuw ptr, ptr %8, i64 %12
  %.not10 = icmp eq i32 %11, 0
  br i1 %.not10, label %._crit_edge, label %.lr.ph

._crit_edge:                                      ; preds = %.lr.ph, %2, %_ZNK15ref_vector_coreI6solver21ref_unmanaged_wrapperIS0_EE3endEv.exit
  ret void

.lr.ph:                                           ; preds = %_ZNK15ref_vector_coreI6solver21ref_unmanaged_wrapperIS0_EE3endEv.exit, %.lr.ph
  %.011 = phi ptr [ %18, %.lr.ph ], [ %8, %_ZNK15ref_vector_coreI6solver21ref_unmanaged_wrapperIS0_EE3endEv.exit ]
  %14 = load ptr, ptr %.011, align 8, !tbaa !42
  %15 = load ptr, ptr %14, align 8, !tbaa !38
  %16 = getelementptr inbounds nuw i8, ptr %15, i64 88
  %17 = load ptr, ptr %16, align 8
  tail call void %17(ptr noundef nonnull align 8 dereferenceable(96) %14, ptr noundef nonnull align 8 dereferenceable(8) %1)
  %18 = getelementptr inbounds nuw i8, ptr %.011, i64 8
  %.not = icmp eq ptr %18, %13
  br i1 %.not, label %._crit_edge, label %.lr.ph
}